target datalayout = "e-m:e-p270:32:32-p271:32:32-p272:64:64-i64:64-i128:128-f80:128-n8:16:32:64-S128"
target triple = "x86_64-pc-linux-gnu"

%"class.Json::Features" = type { i8, i8 }
%"class.Json::Reader" = type <{ %"class.std::stack", %"class.std::deque.0", %"class.std::__cxx11::basic_string", ptr, ptr, ptr, ptr, ptr, %"class.std::__cxx11::basic_string", %"class.Json::Features", i8, [5 x i8] }>
%"class.std::stack" = type { %"class.std::deque" }
%"class.std::deque" = type { %"class.std::_Deque_base" }
%"class.std::_Deque_base" = type { %"struct.std::_Deque_base<Json::Value *, std::allocator<Json::Value *>>::_Deque_impl" }
%"struct.std::_Deque_base<Json::Value *, std::allocator<Json::Value *>>::_Deque_impl" = type { %"struct.std::_Deque_base<Json::Value *, std::allocator<Json::Value *>>::_Deque_impl_data" }
%"struct.std::_Deque_base<Json::Value *, std::allocator<Json::Value *>>::_Deque_impl_data" = type { ptr, i64, %"struct.std::_Deque_iterator", %"struct.std::_Deque_iterator" }
%"struct.std::_Deque_iterator" = type { ptr, ptr, ptr, ptr }
%"class.std::deque.0" = type { %"class.std::_Deque_base.1" }
%"class.std::_Deque_base.1" = type { %"struct.std::_Deque_base<Json::Reader::ErrorInfo, std::allocator<Json::Reader::ErrorInfo>>::_Deque_impl" }
%"struct.std::_Deque_base<Json::Reader::ErrorInfo, std::allocator<Json::Reader::ErrorInfo>>::_Deque_impl" = type { %"struct.std::_Deque_base<Json::Reader::ErrorInfo, std::allocator<Json::Reader::ErrorInfo>>::_Deque_impl_data" }
%"struct.std::_Deque_base<Json::Reader::ErrorInfo, std::allocator<Json::Reader::ErrorInfo>>::_Deque_impl_data" = type { ptr, i64, %"struct.std::_Deque_iterator.5", %"struct.std::_Deque_iterator.5" }
%"struct.std::_Deque_iterator.5" = type { ptr, ptr, ptr, ptr }
%"class.std::__cxx11::basic_string" = type { %"struct.std::__cxx11::basic_string<char>::_Alloc_hider", i64, %union.anon }
%"struct.std::__cxx11::basic_string<char>::_Alloc_hider" = type { ptr }
%union.anon = type { i64, [8 x i8] }
%"class.std::allocator.6" = type { i8 }

@.str.19 = private unnamed_addr constant [19 x i8] c"Line %d, Column %d\00", align 1

; Function Attrs: mustprogress nounwind uwtable
define dso_local void @_ZNK4Json6Reader24getLocationLineAndColumnEPKcRiS3_(ptr noundef nonnull align 8 dereferenceable(267) %0, ptr noundef %1, ptr noundef nonnull align 4 dereferenceable(4) %2, ptr noundef nonnull align 4 dereferenceable(4) %3) #0 align 2 {
  %5 = alloca ptr, align 8
  %6 = alloca ptr, align 8
  %7 = alloca ptr, align 8
  %8 = alloca ptr, align 8
  %9 = alloca ptr, align 8
  %10 = alloca ptr, align 8
  %11 = alloca i8, align 1
  store ptr %0, ptr %5, align 8
  store ptr %1, ptr %6, align 8
  store ptr %2, ptr %7, align 8
  store ptr %3, ptr %8, align 8
  %12 = load ptr, ptr %5, align 8
  %13 = getelementptr inbounds %"class.Json::Reader", ptr %12, i32 0, i32 3
  %14 = load ptr, ptr %13, align 8
  store ptr %14, ptr %9, align 8
  %15 = load ptr, ptr %9, align 8
  store ptr %15, ptr %10, align 8
  %16 = load ptr, ptr %7, align 8
  store i32 0, ptr %16, align 4
  br label %17

17:                                               ; preds = %58, %4
  %18 = load ptr, ptr %9, align 8
  %19 = load ptr, ptr %6, align 8
  %20 = icmp ult ptr %18, %19
  br i1 %20, label %21, label %26

21:                                               ; preds = %17
  %22 = load ptr, ptr %9, align 8
  %23 = getelementptr inbounds %"class.Json::Reader", ptr %12, i32 0, i32 4
  %24 = load ptr, ptr %23, align 8
  %25 = icmp ne ptr %22, %24
  br label %26

26:                                               ; preds = %21, %17
  %27 = phi i1 [ false, %17 ], [ %25, %21 ]
  br i1 %27, label %28, label %59

28:                                               ; preds = %26
  %29 = load ptr, ptr %9, align 8
  %30 = getelementptr inbounds i8, ptr %29, i32 1
  store ptr %30, ptr %9, align 8
  %31 = load i8, ptr %29, align 1
  store i8 %31, ptr %11, align 1
  %32 = load i8, ptr %11, align 1
  %33 = sext i8 %32 to i32
  %34 = icmp eq i32 %33, 13
  br i1 %34, label %35, label %48

35:                                               ; preds = %28
  %36 = load ptr, ptr %9, align 8
  %37 = load i8, ptr %36, align 1
  %38 = sext i8 %37 to i32
  %39 = icmp eq i32 %38, 10
  br i1 %39, label %40, label %43

40:                                               ; preds = %35
  %41 = load ptr, ptr %9, align 8
  %42 = getelementptr inbounds i8, ptr %41, i32 1
  store ptr %42, ptr %9, align 8
  br label %43

43:                                               ; preds = %40, %35
  %44 = load ptr, ptr %9, align 8
  store ptr %44, ptr %10, align 8
  %45 = load ptr, ptr %7, align 8
  %46 = load i32, ptr %45, align 4
  %47 = add nsw i32 %46, 1
  store i32 %47, ptr %45, align 4
  br label %58

48:                                               ; preds = %28
  %49 = load i8, ptr %11, align 1
  %50 = sext i8 %49 to i32
  %51 = icmp eq i32 %50, 10
  br i1 %51, label %52, label %57

52:                                               ; preds = %48
  %53 = load ptr, ptr %9, align 8
  store ptr %53, ptr %10, align 8
  %54 = load ptr, ptr %7, align 8
  %55 = load i32, ptr %54, align 4
  %56 = add nsw i32 %55, 1
  store i32 %56, ptr %54, align 4
  br label %57

57:                                               ; preds = %52, %48
  br label %58

58:                                               ; preds = %57, %43
  br label %17, !llvm.loop !27

59:                                               ; preds = %26
  %60 = load ptr, ptr %6, align 8
  %61 = load ptr, ptr %10, align 8
  %62 = ptrtoint ptr %60 to i64
  %63 = ptrtoint ptr %61 to i64
  %64 = sub i64 %62, %63
  %65 = trunc i64 %64 to i32
  %66 = add nsw i32 %65, 1
  %67 = load ptr, ptr %8, align 8
  store i32 %66, ptr %67, align 4
  %68 = load ptr, ptr %7, align 8
  %69 = load i32, ptr %68, align 4
  %70 = add nsw i32 %69, 1
  store i32 %70, ptr %68, align 4
  ret void
}

; Function Attrs: mustprogress uwtable
define dso_local void @_ZNK4Json6Reader24getLocationLineAndColumnB5cxx11EPKc(ptr dead_on_unwind noalias writable sret(%"class.std::__cxx11::basic_string") align 8 %0, ptr noundef nonnull align 8 dereferenceable(267) %1, ptr noundef %2) #1 align 2 personality ptr @__gxx_personality_v0 {
  %4 = alloca ptr, align 8
  %5 = alloca ptr, align 8
  %6 = alloca ptr, align 8
  %7 = alloca i32, align 4
  %8 = alloca i32, align 4
  %9 = alloca [51 x i8], align 16
  %10 = alloca %"class.std::allocator.6", align 1
  %11 = alloca ptr, align 8
  %12 = alloca i32, align 4
  store ptr %0, ptr %4, align 8
  store ptr %1, ptr %5, align 8
  store ptr %2, ptr %6, align 8
  %13 = load ptr, ptr %5, align 8
  %14 = load ptr, ptr %6, align 8
  call void @_ZNK4Json6Reader24getLocationLineAndColumnEPKcRiS3_(ptr noundef nonnull align 8 dereferenceable(267) %13, ptr noundef %14, ptr noundef nonnull align 4 dereferenceable(4) %7, ptr noundef nonnull align 4 dereferenceable(4) %8)
  %15 = getelementptr inbounds [51 x i8], ptr %9, i64 0, i64 0
  %16 = load i32, ptr %7, align 4
  %17 = load i32, ptr %8, align 4
  %18 = call i32 (ptr, i64, ptr, ...) @snprintf(ptr noundef %15, i64 noundef 51, ptr noundef @.str.19, i32 noundef %16, i32 noundef %17) #10
  %19 = getelementptr inbounds [51 x i8], ptr %9, i64 0, i64 0
  call void @_ZNSaIcEC1Ev(ptr noundef nonnull align 1 dereferenceable(1) %10) #10
  invoke void @_ZNSt7__cxx1112basic_stringIcSt11char_traitsIcESaIcEEC1EPKcRKS3_(ptr noundef nonnull align 8 dereferenceable(32) %0, ptr noundef %19, ptr noundef nonnull align 1 dereferenceable(1) %10)
          to label %20 unwind label %21

20:                                               ; preds = %3
  call void @_ZNSaIcED1Ev(ptr noundef nonnull align 1 dereferenceable(1) %10) #10
  ret void

21:                                               ; preds = %3
  %22 = landingpad { ptr, i32 }
          cleanup
  %23 = extractvalue { ptr, i32 } %22, 0
  store ptr %23, ptr %11, align 8
  %24 = extractvalue { ptr, i32 } %22, 1
  store i32 %24, ptr %12, align 4
  call void @_ZNSaIcED1Ev(ptr noundef nonnull align 1 dereferenceable(1) %10) #10
  br label %25

25:                                               ; preds = %21
  %26 = load ptr, ptr %11, align 8
  %27 = load i32, ptr %12, align 4
  %28 = insertvalue { ptr, i32 } poison, ptr %26, 0
  %29 = insertvalue { ptr, i32 } %28, i32 %27, 1
  resume { ptr, i32 } %29
}